target datalayout = "e-m:e-p270:32:32-p271:32:32-p272:64:64-i64:64-i128:128-f80:128-n8:16:32:64-S128"
target triple = "x86_64-pc-linux-gnu"

%struct.AVRational = type { i32, i32 }
%struct.AVFormatContext = type { ptr, ptr, ptr, ptr, ptr, i32, i32, ptr, i32, ptr, i32, ptr, ptr, i64, i64, i64, i32, i32, i32, i64, i64, ptr, i32, i32, ptr, i32, i32, i32, i32, ptr, i64, i32, i32, %struct.AVIOInterruptCB, i32, i32, i32, i32, i64, i32, i32, i32, i32, i32, i32, i32, i32, i32, i32, i32, i32, i64, i32, i32, i32, i32, i32, ptr, ptr, ptr, ptr, i32, ptr, ptr, ptr, ptr, i32, ptr, ptr, i64, ptr, ptr, ptr, i64 }
%struct.AVIOInterruptCB = type { ptr, ptr }
%struct.AVIContext = type { ptr, ptr, i64, i64, i64, i64, i32, i32, i32, i32, i32 }
%struct.AVStream = type { ptr, i32, i32, ptr, ptr, %struct.AVRational, i64, i64, i64, i32, i32, %struct.AVRational, ptr, %struct.AVRational, %struct.AVPacket, i32, %struct.AVRational, i32 }
%struct.AVPacket = type { ptr, i64, i64, ptr, i32, i32, i32, ptr, i32, i64, i64, ptr, ptr, %struct.AVRational }
%struct.AVCodecParameters = type { i32, i32, i32, ptr, i32, ptr, i32, i32, i64, i32, i32, i32, i32, i32, i32, %struct.AVRational, %struct.AVRational, i32, i32, i32, i32, i32, i32, i32, %struct.AVChannelLayout, i32, i32, i32, i32, i32, i32 }
%struct.AVChannelLayout = type { i32, i32, %union.anon.0, ptr }
%union.anon.0 = type { i64 }
%struct.AVIStream = type { i64, i64, i32, i32, i32, i32, i64, %struct.AVIIndex, i64, [256 x i32], [256 x i32], i64 }
%struct.AVIIndex = type { i64, i64, i32, i32, i32, ptr }

@.str.35 = private unnamed_addr constant [5 x i8] c"JUNK\00", align 1

; Function Attrs: alwaysinline nounwind uwtable
define internal void @ffio_wfourcc(ptr noundef %0, ptr noundef %1) #4 {
  %3 = alloca ptr, align 8
  %4 = alloca ptr, align 8
  store ptr %0, ptr %3, align 8, !tbaa !29
  store ptr %1, ptr %4, align 8, !tbaa !94
  %5 = load ptr, ptr %3, align 8, !tbaa !29
  %6 = load ptr, ptr %4, align 8, !tbaa !94
  %7 = getelementptr inbounds i8, ptr %6, i64 0
  %8 = load i8, ptr %7, align 1, !tbaa !108
  %9 = zext i8 %8 to i32
  %10 = load ptr, ptr %4, align 8, !tbaa !94
  %11 = getelementptr inbounds i8, ptr %10, i64 1
  %12 = load i8, ptr %11, align 1, !tbaa !108
  %13 = zext i8 %12 to i32
  %14 = shl i32 %13, 8
  %15 = or i32 %9, %14
  %16 = load ptr, ptr %4, align 8, !tbaa !94
  %17 = getelementptr inbounds i8, ptr %16, i64 2
  %18 = load i8, ptr %17, align 1, !tbaa !108
  %19 = zext i8 %18 to i32
  %20 = shl i32 %19, 16
  %21 = or i32 %15, %20
  %22 = load ptr, ptr %4, align 8, !tbaa !94
  %23 = getelementptr inbounds i8, ptr %22, i64 3
  %24 = load i8, ptr %23, align 1, !tbaa !108
  %25 = zext i8 %24 to i32
  %26 = shl i32 %25, 24
  %27 = or i32 %21, %26
  call void @avio_wl32(ptr noundef %5, i32 noundef %27)
  ret void
}

; Function Attrs: nounwind uwtable
define internal ptr @avi_stream2fourcc(ptr noundef %0, i32 noundef %1, i32 noundef %2) #0 {
  %4 = alloca ptr, align 8
  %5 = alloca i32, align 4
  %6 = alloca i32, align 4
  store ptr %0, ptr %4, align 8, !tbaa !94
  store i32 %1, ptr %5, align 4, !tbaa !43
  store i32 %2, ptr %6, align 4, !tbaa !43
  %7 = load i32, ptr %5, align 4, !tbaa !43
  %8 = sdiv i32 %7, 10
  %9 = add nsw i32 48, %8
  %10 = trunc i32 %9 to i8
  %11 = load ptr, ptr %4, align 8, !tbaa !94
  %12 = getelementptr inbounds i8, ptr %11, i64 0
  store i8 %10, ptr %12, align 1, !tbaa !108
  %13 = load i32, ptr %5, align 4, !tbaa !43
  %14 = srem i32 %13, 10
  %15 = add nsw i32 48, %14
  %16 = trunc i32 %15 to i8
  %17 = load ptr, ptr %4, align 8, !tbaa !94
  %18 = getelementptr inbounds i8, ptr %17, i64 1
  store i8 %16, ptr %18, align 1, !tbaa !108
  %19 = load i32, ptr %6, align 4, !tbaa !43
  %20 = icmp eq i32 %19, 0
  br i1 %20, label %21, label %26

21:                                               ; preds = %3
  %22 = load ptr, ptr %4, align 8, !tbaa !94
  %23 = getelementptr inbounds i8, ptr %22, i64 2
  store i8 100, ptr %23, align 1, !tbaa !108
  %24 = load ptr, ptr %4, align 8, !tbaa !94
  %25 = getelementptr inbounds i8, ptr %24, i64 3
  store i8 99, ptr %25, align 1, !tbaa !108
  br label %40

26:                                               ; preds = %3
  %27 = load i32, ptr %6, align 4, !tbaa !43
  %28 = icmp eq i32 %27, 3
  br i1 %28, label %29, label %34

29:                                               ; preds = %26
  %30 = load ptr, ptr %4, align 8, !tbaa !94
  %31 = getelementptr inbounds i8, ptr %30, i64 2
  store i8 115, ptr %31, align 1, !tbaa !108
  %32 = load ptr, ptr %4, align 8, !tbaa !94
  %33 = getelementptr inbounds i8, ptr %32, i64 3
  store i8 98, ptr %33, align 1, !tbaa !108
  br label %39

34:                                               ; preds = %26
  %35 = load ptr, ptr %4, align 8, !tbaa !94
  %36 = getelementptr inbounds i8, ptr %35, i64 2
  store i8 119, ptr %36, align 1, !tbaa !108
  %37 = load ptr, ptr %4, align 8, !tbaa !94
  %38 = getelementptr inbounds i8, ptr %37, i64 3
  store i8 98, ptr %38, align 1, !tbaa !108
  br label %39

39:                                               ; preds = %34, %29
  br label %40

40:                                               ; preds = %39, %21
  %41 = load ptr, ptr %4, align 8, !tbaa !94
  %42 = getelementptr inbounds i8, ptr %41, i64 4
  store i8 0, ptr %42, align 1, !tbaa !108
  %43 = load ptr, ptr %4, align 8, !tbaa !94
  ret ptr %43
}

; Function Attrs: nounwind uwtable
define internal void @write_odml_master(ptr noundef %0, i32 noundef %1) #0 {
  %3 = alloca ptr, align 8
  %4 = alloca i32, align 4
  %5 = alloca ptr, align 8
  %6 = alloca ptr, align 8
  %7 = alloca ptr, align 8
  %8 = alloca ptr, align 8
  %9 = alloca ptr, align 8
  %10 = alloca [5 x i8], align 1
  store ptr %0, ptr %3, align 8, !tbaa !4
  store i32 %1, ptr %4, align 4, !tbaa !43
  call void @llvm.lifetime.start.p0(i64 8, ptr %5) #12
  %11 = load ptr, ptr %3, align 8, !tbaa !4
  %12 = getelementptr inbounds nuw %struct.AVFormatContext, ptr %11, i32 0, i32 4
  %13 = load ptr, ptr %12, align 8, !tbaa !28
  store ptr %13, ptr %5, align 8, !tbaa !29
  call void @llvm.lifetime.start.p0(i64 8, ptr %6) #12
  %14 = load ptr, ptr %3, align 8, !tbaa !4
  %15 = getelementptr inbounds nuw %struct.AVFormatContext, ptr %14, i32 0, i32 3
  %16 = load ptr, ptr %15, align 8, !tbaa !9
  store ptr %16, ptr %6, align 8, !tbaa !26
  call void @llvm.lifetime.start.p0(i64 8, ptr %7) #12
  %17 = load ptr, ptr %3, align 8, !tbaa !4
  %18 = getelementptr inbounds nuw %struct.AVFormatContext, ptr %17, i32 0, i32 7
  %19 = load ptr, ptr %18, align 8, !tbaa !44
  %20 = load i32, ptr %4, align 4, !tbaa !43
  %21 = sext i32 %20 to i64
  %22 = getelementptr inbounds ptr, ptr %19, i64 %21
  %23 = load ptr, ptr %22, align 8, !tbaa !31
  store ptr %23, ptr %7, align 8, !tbaa !31
  call void @llvm.lifetime.start.p0(i64 8, ptr %8) #12
  %24 = load ptr, ptr %7, align 8, !tbaa !31
  %25 = getelementptr inbounds nuw %struct.AVStream, ptr %24, i32 0, i32 3
  %26 = load ptr, ptr %25, align 8, !tbaa !56
  store ptr %26, ptr %8, align 8, !tbaa !55
  call void @llvm.lifetime.start.p0(i64 8, ptr %9) #12
  %27 = load ptr, ptr %7, align 8, !tbaa !31
  %28 = getelementptr inbounds nuw %struct.AVStream, ptr %27, i32 0, i32 4
  %29 = load ptr, ptr %28, align 8, !tbaa !45
  store ptr %29, ptr %9, align 8, !tbaa !77
  call void @llvm.lifetime.start.p0(i64 5, ptr %10) #12
  %30 = load ptr, ptr %5, align 8, !tbaa !29
  %31 = call i64 @ff_start_tag(ptr noundef %30, ptr noundef @.str.35)
  %32 = load ptr, ptr %9, align 8, !tbaa !77
  %33 = getelementptr inbounds nuw %struct.AVIStream, ptr %32, i32 0, i32 7
  %34 = getelementptr inbounds nuw %struct.AVIIndex, ptr %33, i32 0, i32 0
  store i64 %31, ptr %34, align 8, !tbaa !126
  %35 = load ptr, ptr %5, align 8, !tbaa !29
  call void @avio_wl16(ptr noundef %35, i32 noundef 4)
  %36 = load ptr, ptr %5, align 8, !tbaa !29
  call void @avio_w8(ptr noundef %36, i32 noundef 0)
  %37 = load ptr, ptr %5, align 8, !tbaa !29
  call void @avio_w8(ptr noundef %37, i32 noundef 0)
  %38 = load ptr, ptr %5, align 8, !tbaa !29
  call void @avio_wl32(ptr noundef %38, i32 noundef 0)
  %39 = load ptr, ptr %5, align 8, !tbaa !29
  %40 = getelementptr inbounds [5 x i8], ptr %10, i64 0, i64 0
  %41 = load i32, ptr %4, align 4, !tbaa !43
  %42 = load ptr, ptr %8, align 8, !tbaa !55
  %43 = getelementptr inbounds nuw %struct.AVCodecParameters, ptr %42, i32 0, i32 0
  %44 = load i32, ptr %43, align 8, !tbaa !63
  %45 = call ptr @avi_stream2fourcc(ptr noundef %40, i32 noundef %41, i32 noundef %44)
  call void @ffio_wfourcc(ptr noundef %39, ptr noundef %45)
  %46 = load ptr, ptr %5, align 8, !tbaa !29
  %47 = load ptr, ptr %6, align 8, !tbaa !26
  %48 = getelementptr inbounds nuw %struct.AVIContext, ptr %47, i32 0, i32 8
  %49 = load i32, ptr %48, align 8, !tbaa !69
  %50 = sext i32 %49 to i64
  %51 = mul nsw i64 16, %50
  %52 = add nsw i64 12, %51
  call void @ffio_fill(ptr noundef %46, i32 noundef 0, i64 noundef %52)
  %53 = load ptr, ptr %5, align 8, !tbaa !29
  %54 = load ptr, ptr %9, align 8, !tbaa !77
  %55 = getelementptr inbounds nuw %struct.AVIStream, ptr %54, i32 0, i32 7
  %56 = getelementptr inbounds nuw %struct.AVIIndex, ptr %55, i32 0, i32 0
  %57 = load i64, ptr %56, align 8, !tbaa !126
  call void @ff_end_tag(ptr noundef %53, i64 noundef %57)
  call void @llvm.lifetime.end.p0(i64 5, ptr %10) #12
  call void @llvm.lifetime.end.p0(i64 8, ptr %9) #12
  call void @llvm.lifetime.end.p0(i64 8, ptr %8) #12
  call void @llvm.lifetime.end.p0(i64 8, ptr %7) #12
  call void @llvm.lifetime.end.p0(i64 8, ptr %6) #12
  call void @llvm.lifetime.end.p0(i64 8, ptr %5) #12
  ret void
}