; Function Attrs: nounwind uwtable
define internal fastcc void @write_odml_master(ptr noundef readonly captures(none) %0, i32 noundef %1) unnamed_addr #0 {
  %3 = getelementptr inbounds nuw i8, ptr %0, i64 32
  %4 = load ptr, ptr %3, align 8, !tbaa !24
  %5 = getelementptr inbounds nuw i8, ptr %0, i64 24
  %6 = load ptr, ptr %5, align 8, !tbaa !4
  %7 = getelementptr inbounds nuw i8, ptr %0, i64 48
  %8 = load ptr, ptr %7, align 8, !tbaa !36
  %9 = sext i32 %1 to i64
  %10 = getelementptr inbounds ptr, ptr %8, i64 %9
  %11 = load ptr, ptr %10, align 8, !tbaa !37
  %12 = getelementptr inbounds nuw i8, ptr %11, i64 16
  %13 = load ptr, ptr %12, align 8, !tbaa !54
  %14 = getelementptr inbounds nuw i8, ptr %11, i64 24
  %15 = load ptr, ptr %14, align 8, !tbaa !39
  %16 = tail call i64 @ff_start_tag(ptr noundef %4, ptr noundef nonnull @.str.35) #10
  %17 = getelementptr inbounds nuw i8, ptr %15, i64 40
  store i64 %16, ptr %17, align 8, !tbaa !111
  tail call void @avio_wl16(ptr noundef %4, i32 noundef 4) #10
  tail call void @avio_w8(ptr noundef %4, i32 noundef 0) #10
  tail call void @avio_w8(ptr noundef %4, i32 noundef 0) #10
  tail call void @avio_wl32(ptr noundef %4, i32 noundef 0) #10
  %18 = load i32, ptr %13, align 8, !tbaa !59
  switch i32 %18, label %20 [
    i32 0, label %avi_stream2fourcc.exit
    i32 3, label %19
  ]

19:                                               ; preds = %2
  br label %avi_stream2fourcc.exit

20:                                               ; preds = %2
  br label %avi_stream2fourcc.exit

avi_stream2fourcc.exit:                           ; preds = %2, %19, %20
  %.sink13.i = phi i32 [ 7536640, %19 ], [ 7798784, %20 ], [ 6553600, %2 ]
  %.sink.i = phi i32 [ 1644167168, %19 ], [ 1644167168, %20 ], [ 1660944384, %2 ]
  %21 = srem i32 %1, 10
  %22 = sdiv i32 %1, 10
  %23 = add nsw i32 %22, 48
  %24 = and i32 %23, 255
  %25 = shl nsw i32 %21, 8
  %26 = add nsw i32 %25, 12288
  %27 = and i32 %26, 65280
  %28 = or disjoint i32 %27, %24
  %29 = or disjoint i32 %28, %.sink13.i
  %30 = or disjoint i32 %29, %.sink.i
  tail call void @avio_wl32(ptr noundef %4, i32 noundef %30) #10
  %31 = getelementptr inbounds nuw i8, ptr %6, i64 56
  %32 = load i32, ptr %31, align 8, !tbaa !63
  %33 = sext i32 %32 to i64
  %34 = shl nsw i64 %33, 4
  %35 = or disjoint i64 %34, 12
  tail call void @ffio_fill(ptr noundef %4, i32 noundef 0, i64 noundef %35) #10
  %36 = load i64, ptr %17, align 8, !tbaa !111
  tail call void @ff_end_tag(ptr noundef %4, i64 noundef %36) #10
  ret void
}